; Function Attrs: mustprogress uwtable
define noundef zeroext i1 @_ZNK8proxygen17FlowControlFilter10isReusableEv(ptr nocapture noundef nonnull readonly align 8 dereferenceable(101) %this) unnamed_addr #3 align 2 {
entry:
  %error_ = getelementptr inbounds i8, ptr %this, i64 100
  %bf.load = load i8, ptr %error_, align 4
  %0 = and i8 %bf.load, 1
  %bf.cast.not = icmp eq i8 %0, 0
  br i1 %bf.cast.not, label %if.end, label %return

if.end:                                           ; preds = %entry
  %call_ = getelementptr inbounds i8, ptr %this, i64 24
  %1 = load ptr, ptr %call_, align 8
  %vtable = load ptr, ptr %1, align 8
  %vfn = getelementptr inbounds i8, ptr %vtable, i64 128
  %2 = load ptr, ptr %vfn, align 8
  %call = tail call noundef zeroext i1 %2(ptr noundef nonnull align 8 dereferenceable(8) %1)
  br label %return

return:                                           ; preds = %entry, %if.end
  %retval.0 = phi i1 [ %call, %if.end ], [ false, %entry ]
  ret i1 %retval.0
}